(dp0
S'LFAU_9'
p1
S'20'
p2
sS'E_ANGER'
p3
S'34'
p4
sS'LFAU_12'
p5
S'6'
p6
sS'LFAU_10'
p7
S'19'
p8
sS'LFAU_17'
p9
S'13'
p10
sS'LFAU_16'
p11
S'2'
p12
sS'LFAU_15'
p13
S'12'
p14
sS'LFAU_14'
p15
S'10'
p16
sS'LFAU_18'
p17
S'15'
p18
sS'YR_R20'
p19
S'37'
p20
sS'O_EYE'
p21
S'49'
p22
sS'UFAU_4'
p23
S'23'
p24
sS'CR_RD'
p25
S'47'
p26
sS'CAU_A22A25'
p27
S'28'
p28
sS'E_SADNESS'
p29
S'33'
p30
sS'UFAU_1'
p31
S'24'
p32
sS'UFAU_2'
p33
S'22'
p34
sS'CR_RU'
p35
S'48'
p36
sS'UFAU_44'
p37
S'25'
p38
sS'UFAU_43'
p39
S'26'
p40
sS'O_GLASSES'
p41
S'51'
p42
sS'E_FEAR'
p43
S'32'
p44
sS'O_HAIR'
p45
S'52'
p46
sS'YR_R30'
p47
S'38'
p48
sS'YR_L45'
p49
S'41'
p50
sS'O_MOUTH'
p51
S'50'
p52
sS'PR_SD'
p53
S'45'
p54
sS'LFAU_12LW'
p55
S'9'
p56
sS'PR_SU'
p57
S'44'
p58
sS'LFAU_12L'
p59
S'7'
p60
sS'E_DISGUST'
p61
S'35'
p62
sS'YR_R45'
p63
S'39'
p64
sS'E_SURPRISE'
p65
S'31'
p66
sS'YR_L90'
p67
S'42'
p68
sS'N_N'
p69
S'1'
p70
sS'LFAU_12R'
p71
S'8'
p72
sS'LFAU_34'
p73
S'21'
p74
sS'PR_D'
p75
S'46'
p76
sS'E_HAPPY'
p77
S'30'
p78
sS'IGN_INV'
p79
S'53'
p80
sS'PR_U'
p81
S'43'
p82
sS'CAU_A12A15'
p83
S'29'
p84
sS'YR_R10'
p85
S'36'
p86
sS'CAU_A26A12lw'
p87
S'27'
p88
sS'LFAU_28'
p89
S'18'
p90
sS'LFAU_22'
p91
S'14'
p92
sS'LFAU_23'
p93
S'16'
p94
sS'LFAU_20'
p95
S'11'
p96
sS'LFAU_26'
p97
S'4'
p98
sS'LFAU_27'
p99
S'5'
p100
sS'LFAU_24'
p101
S'17'
p102
sS'LFAU_25'
p103
S'3'
p104
sS'YR_R90'
p105
S'40'
p106
s.