(dp0
S'24'
p1
S'Inner Brow Raiser'
p2
sS'25'
p3
S'Squint'
p4
sS'26'
p5
S'Eyes Closed'
p6
sS'27'
p7
S'Jaw Drop + Low Intensity Lip Corner Puller'
p8
sS'20'
p9
S'Nose Wrinkler'
p10
sS'21'
p11
S'Cheek Puff'
p12
sS'22'
p13
S'Outer Brow Raiser'
p14
sS'23'
p15
S'Brow Lowerer'
p16
sS'28'
p17
S'Lip Funneler + Lips Part'
p18
sS'29'
p19
S'Lip Corner Puller + Lip Corner Depressor'
p20
sS'2'
p21
S'Lower Lip Depressor'
p22
sS'4'
p23
S'Jaw Drop'
p24
sS'6'
p25
S'Lip Corner Puller'
p26
sS'8'
p27
S'Right Lip Corner Puller'
p28
sS'11'
p29
S'Lip Stretcher'
p30
sS'10'
p31
S'Dimpler'
p32
sS'13'
p33
S'Chin Raiser'
p34
sS'12'
p35
S'Lip Corner Depressor'
p36
sS'15'
p37
S'Lip Puckerer'
p38
sS'14'
p39
S'Lip Funneler'
p40
sS'17'
p41
S'Lip Presser'
p42
sS'16'
p43
S'Lip Tightener'
p44
sS'19'
p45
S'Upper Lip Raiser'
p46
sS'18'
p47
S'Lip Suck '
p48
sS'51'
p49
S'Eyeglasses Occlusion'
p50
sS'50'
p51
S'Mouth Occlusion'
p52
sS'53'
p53
S'Invalid'
p54
sS'52'
p55
S'Hair Occlusion'
p56
sS'48'
p57
S'Right-Upwards'
p58
sS'49'
p59
S'Eye Occlusion'
p60
sS'46'
p61
S'Pitch Downwards'
p62
sS'47'
p63
S'Right-Downwards'
p64
sS'44'
p65
S'Pitch Slight Upwards'
p66
sS'45'
p67
S'Pitch Slight Downwards'
p68
sS'42'
p69
S'Yaw -90 Left'
p70
sS'43'
p71
S'Pitch Upwards'
p72
sS'40'
p73
S'Yaw +90 Right'
p74
sS'41'
p75
S'Yaw -45 Left '
p76
sS'1'
p77
S'Neutral'
p78
sS'3'
p79
S'Lips Part'
p80
sS'5'
p81
S'Mouth Stretch '
p82
sS'7'
p83
S'Left Lip Corner Puller'
p84
sS'9'
p85
S'Low Intensity Lip Corner Puller'
p86
sS'39'
p87
S'Yaw +45 Right'
p88
sS'38'
p89
S'Yaw +30 Right'
p90
sS'33'
p91
S'Sadness'
p92
sS'32'
p93
S'Fear'
p94
sS'31'
p95
S'Surprise'
p96
sS'30'
p97
S'Happiness'
p98
sS'37'
p99
S'Yaw +20 Right'
p100
sS'36'
p101
S'Yaw +10 Right'
p102
sS'35'
p103
S'Disgust'
p104
sS'34'
p105
S'Anger'
p106
s.